target datalayout = "e-m:e-p270:32:32-p271:32:32-p272:64:64-i64:64-i128:128-f80:128-n8:16:32:64-S128"
target triple = "x86_64-pc-linux-gnu"

@.str = private unnamed_addr constant [3 x i8] c"::\00", align 1
@.str.4 = private unnamed_addr constant [44 x i8] c"Method pattern only allows one '::' allowed\00", align 1
@.str.5 = private unnamed_addr constant [91 x i8] c"Method pattern uses '/' together with '::' (tips: replace '/' with '+' for hidden classes)\00", align 1
@.str.6 = private unnamed_addr constant [57 x i8] c"Method pattern uses mixed '/' and '.' package separators\00", align 1
@.str.7 = private unnamed_addr constant [44 x i8] c"Method pattern uses multiple '.' in pattern\00", align 1

; Function Attrs: mustprogress nounwind uwtable
define hidden noundef zeroext i1 @_ZN13MethodMatcher12canonicalizeEPcRPKc(ptr noundef %0, ptr noundef nonnull align 8 dereferenceable(8) %1) #1 align 2 {
  %3 = alloca i1, align 1
  %4 = alloca ptr, align 8
  %5 = alloca ptr, align 8
  %6 = alloca ptr, align 8
  %7 = alloca i8, align 1
  %8 = alloca ptr, align 8
  %9 = alloca ptr, align 8
  %10 = alloca ptr, align 8
  %11 = alloca i8, align 1
  %12 = alloca ptr, align 8
  %13 = alloca ptr, align 8
  store ptr %0, ptr %4, align 8
  store ptr %1, ptr %5, align 8
  %14 = load ptr, ptr %4, align 8
  %15 = call noundef ptr @strstr(ptr noundef %14, ptr noundef @.str) #8
  store ptr %15, ptr %6, align 8
  %16 = load ptr, ptr %6, align 8
  %17 = icmp ne ptr %16, null
  %18 = zext i1 %17 to i8
  store i8 %18, ptr %7, align 1
  %19 = load i8, ptr %7, align 1
  %20 = trunc i8 %19 to i1
  br i1 %20, label %21, label %66

21:                                               ; preds = %2
  %22 = load ptr, ptr %6, align 8
  %23 = getelementptr inbounds i8, ptr %22, i64 2
  %24 = load i8, ptr %23, align 1
  %25 = sext i8 %24 to i32
  %26 = icmp ne i32 %25, 0
  br i1 %26, label %27, label %35

27:                                               ; preds = %21
  %28 = load ptr, ptr %6, align 8
  %29 = getelementptr inbounds i8, ptr %28, i64 2
  %30 = call noundef ptr @strstr(ptr noundef %29, ptr noundef @.str) #8
  %31 = icmp ne ptr %30, null
  br i1 %31, label %32, label %34

32:                                               ; preds = %27
  %33 = load ptr, ptr %5, align 8
  store ptr @.str.4, ptr %33, align 8
  store i1 false, ptr %3, align 1
  br label %156

34:                                               ; preds = %27
  br label %35

35:                                               ; preds = %34, %21
  %36 = load ptr, ptr %4, align 8
  store ptr %36, ptr %8, align 8
  %37 = load ptr, ptr %8, align 8
  %38 = icmp ne ptr %37, null
  br i1 %38, label %39, label %65

39:                                               ; preds = %35
  %40 = load ptr, ptr %8, align 8
  %41 = getelementptr inbounds i8, ptr %40, i64 1
  store ptr %41, ptr %9, align 8
  br label %42

42:                                               ; preds = %61, %39
  %43 = load ptr, ptr %9, align 8
  %44 = load i8, ptr %43, align 1
  %45 = sext i8 %44 to i32
  %46 = icmp ne i32 %45, 0
  br i1 %46, label %47, label %64

47:                                               ; preds = %42
  %48 = load ptr, ptr %9, align 8
  %49 = load i8, ptr %48, align 1
  %50 = sext i8 %49 to i32
  %51 = icmp eq i32 %50, 40
  br i1 %51, label %52, label %53

52:                                               ; preds = %47
  br label %64

53:                                               ; preds = %47
  %54 = load ptr, ptr %9, align 8
  %55 = load i8, ptr %54, align 1
  %56 = sext i8 %55 to i32
  %57 = icmp eq i32 %56, 47
  br i1 %57, label %58, label %60

58:                                               ; preds = %53
  %59 = load ptr, ptr %5, align 8
  store ptr @.str.5, ptr %59, align 8
  store i1 false, ptr %3, align 1
  br label %156

60:                                               ; preds = %53
  br label %61

61:                                               ; preds = %60
  %62 = load ptr, ptr %9, align 8
  %63 = getelementptr inbounds i8, ptr %62, i32 1
  store ptr %63, ptr %9, align 8
  br label %42, !llvm.loop !6

64:                                               ; preds = %52, %42
  br label %65

65:                                               ; preds = %64, %35
  br label %114

66:                                               ; preds = %2
  %67 = load ptr, ptr %4, align 8
  %68 = call noundef ptr @strchr(ptr noundef %67, i32 noundef 46) #8
  store ptr %68, ptr %10, align 8
  store i8 0, ptr %11, align 1
  %69 = load ptr, ptr %10, align 8
  %70 = icmp ne ptr %69, null
  br i1 %70, label %71, label %113

71:                                               ; preds = %66
  %72 = load ptr, ptr %10, align 8
  %73 = getelementptr inbounds i8, ptr %72, i64 1
  store ptr %73, ptr %12, align 8
  br label %74

74:                                               ; preds = %109, %71
  %75 = load ptr, ptr %12, align 8
  %76 = load i8, ptr %75, align 1
  %77 = sext i8 %76 to i32
  %78 = icmp ne i32 %77, 0
  br i1 %78, label %79, label %112

79:                                               ; preds = %74
  %80 = load ptr, ptr %12, align 8
  %81 = load i8, ptr %80, align 1
  %82 = sext i8 %81 to i32
  %83 = icmp eq i32 %82, 40
  br i1 %83, label %84, label %85

84:                                               ; preds = %79
  store i8 1, ptr %11, align 1
  br label %85

85:                                               ; preds = %84, %79
  %86 = load ptr, ptr %12, align 8
  %87 = load i8, ptr %86, align 1
  %88 = sext i8 %87 to i32
  %89 = icmp eq i32 %88, 44
  br i1 %89, label %90, label %91

90:                                               ; preds = %85
  br label %112

91:                                               ; preds = %85
  %92 = load i8, ptr %11, align 1
  %93 = trunc i8 %92 to i1
  br i1 %93, label %101, label %94

94:                                               ; preds = %91
  %95 = load ptr, ptr %12, align 8
  %96 = load i8, ptr %95, align 1
  %97 = sext i8 %96 to i32
  %98 = icmp eq i32 %97, 47
  br i1 %98, label %99, label %101

99:                                               ; preds = %94
  %100 = load ptr, ptr %5, align 8
  store ptr @.str.6, ptr %100, align 8
  store i1 false, ptr %3, align 1
  br label %156

101:                                              ; preds = %94, %91
  %102 = load ptr, ptr %12, align 8
  %103 = load i8, ptr %102, align 1
  %104 = sext i8 %103 to i32
  %105 = icmp eq i32 %104, 46
  br i1 %105, label %106, label %108

106:                                              ; preds = %101
  %107 = load ptr, ptr %5, align 8
  store ptr @.str.7, ptr %107, align 8
  store i1 false, ptr %3, align 1
  br label %156

108:                                              ; preds = %101
  br label %109

109:                                              ; preds = %108
  %110 = load ptr, ptr %12, align 8
  %111 = getelementptr inbounds i8, ptr %110, i32 1
  store ptr %111, ptr %12, align 8
  br label %74, !llvm.loop !8

112:                                              ; preds = %90, %74
  br label %113

113:                                              ; preds = %112, %66
  br label %114

114:                                              ; preds = %113, %65
  %115 = load ptr, ptr %4, align 8
  store ptr %115, ptr %13, align 8
  br label %116

116:                                              ; preds = %152, %114
  %117 = load ptr, ptr %13, align 8
  %118 = load i8, ptr %117, align 1
  %119 = sext i8 %118 to i32
  %120 = icmp ne i32 %119, 0
  br i1 %120, label %121, label %155

121:                                              ; preds = %116
  %122 = load i8, ptr %7, align 1
  %123 = trunc i8 %122 to i1
  br i1 %123, label %124, label %139

124:                                              ; preds = %121
  %125 = load ptr, ptr %13, align 8
  %126 = load i8, ptr %125, align 1
  %127 = sext i8 %126 to i32
  %128 = icmp eq i32 %127, 46
  br i1 %128, label %129, label %131

129:                                              ; preds = %124
  %130 = load ptr, ptr %13, align 8
  store i8 47, ptr %130, align 1
  br label %131

131:                                              ; preds = %129, %124
  %132 = load ptr, ptr %13, align 8
  %133 = load i8, ptr %132, align 1
  %134 = sext i8 %133 to i32
  %135 = icmp eq i32 %134, 58
  br i1 %135, label %136, label %138

136:                                              ; preds = %131
  %137 = load ptr, ptr %13, align 8
  store i8 32, ptr %137, align 1
  br label %138

138:                                              ; preds = %136, %131
  br label %139

139:                                              ; preds = %138, %121
  %140 = load ptr, ptr %13, align 8
  %141 = load i8, ptr %140, align 1
  %142 = sext i8 %141 to i32
  %143 = icmp eq i32 %142, 44
  br i1 %143, label %149, label %144

144:                                              ; preds = %139
  %145 = load ptr, ptr %13, align 8
  %146 = load i8, ptr %145, align 1
  %147 = sext i8 %146 to i32
  %148 = icmp eq i32 %147, 46
  br i1 %148, label %149, label %151

149:                                              ; preds = %144, %139
  %150 = load ptr, ptr %13, align 8
  store i8 32, ptr %150, align 1
  br label %151

151:                                              ; preds = %149, %144
  br label %152

152:                                              ; preds = %151
  %153 = load ptr, ptr %13, align 8
  %154 = getelementptr inbounds i8, ptr %153, i32 1
  store ptr %154, ptr %13, align 8
  br label %116, !llvm.loop !9

155:                                              ; preds = %116
  store i1 true, ptr %3, align 1
  br label %156

156:                                              ; preds = %155, %106, %99, %58, %32
  %157 = load i1, ptr %3, align 1
  ret i1 %157
}