; Function Attrs: mustprogress nofree nounwind memory(readwrite, inaccessiblemem: none) uwtable
define hidden noundef zeroext i1 @_ZN13MethodMatcher12canonicalizeEPcRPKc(ptr noundef %0, ptr nocapture noundef nonnull writeonly align 8 dereferenceable(8) %1) local_unnamed_addr #3 align 2 {
  %3 = tail call noundef ptr @strstr(ptr noundef nonnull dereferenceable(1) %0, ptr noundef nonnull dereferenceable(1) @.str) #15
  %.not = icmp eq ptr %3, null
  br i1 %.not, label %11, label %4

4:                                                ; preds = %2
  %5 = getelementptr inbounds i8, ptr %3, i64 2
  %6 = load i8, ptr %5, align 1
  %.not51 = icmp eq i8 %6, 0
  br i1 %.not51, label %9, label %7

7:                                                ; preds = %4
  %8 = tail call noundef ptr @strstr(ptr noundef nonnull dereferenceable(1) %5, ptr noundef nonnull dereferenceable(1) @.str) #15
  %.not52 = icmp eq ptr %8, null
  br i1 %.not52, label %9, label %.loopexit.sink.split

9:                                                ; preds = %7, %4
  %.not53 = icmp eq ptr %0, null
  br i1 %.not53, label %.loopexit68.thread, label %.preheader69

.preheader69:                                     ; preds = %9, %.preheader69
  %.pn55 = phi ptr [ %.040, %.preheader69 ], [ %0, %9 ]
  %.040 = getelementptr inbounds i8, ptr %.pn55, i64 1
  %10 = load i8, ptr %.040, align 1
  switch i8 %10, label %.preheader69 [
    i8 0, label %.loopexit68
    i8 40, label %.loopexit68
    i8 47, label %.loopexit.sink.split
  ], !llvm.loop !6

11:                                               ; preds = %2
  %12 = tail call noundef ptr @strchr(ptr noundef nonnull dereferenceable(1) %0, i32 noundef 46) #15
  %.not49 = icmp eq ptr %12, null
  br i1 %.not49, label %.loopexit68.thread77, label %.preheader

.preheader:                                       ; preds = %11, %.thread60
  %.038 = phi i1 [ %.15964, %.thread60 ], [ false, %11 ]
  %.pn = phi ptr [ %.037, %.thread60 ], [ %12, %11 ]
  %.037 = getelementptr inbounds i8, ptr %.pn, i64 1
  %13 = load i8, ptr %.037, align 1
  switch i8 %13, label %14 [
    i8 0, label %.loopexit68
    i8 40, label %.thread60
    i8 44, label %.loopexit68
  ]

14:                                               ; preds = %.preheader
  %15 = icmp ne i8 %13, 47
  %or.cond.not = or i1 %.038, %15
  br i1 %or.cond.not, label %.thread60, label %.loopexit.sink.split

.thread60:                                        ; preds = %.preheader, %14
  %.15964 = phi i1 [ %.038, %14 ], [ true, %.preheader ]
  %16 = icmp eq i8 %13, 46
  br i1 %16, label %.loopexit.sink.split, label %.preheader, !llvm.loop !8

.loopexit68:                                      ; preds = %.preheader69, %.preheader69, %.preheader, %.preheader
  %17 = load i8, ptr %0, align 1
  %.not5671 = icmp eq i8 %17, 0
  br i1 %.not5671, label %.loopexit, label %.lr.ph

.loopexit68.thread77:                             ; preds = %11
  %18 = load i8, ptr %0, align 1
  %.not567178 = icmp eq i8 %18, 0
  br i1 %.not567178, label %.loopexit, label %.lr.ph.split.us.preheader

.loopexit68.thread:                               ; preds = %9
  %19 = load i8, ptr %0, align 1
  %.not567176 = icmp eq i8 %19, 0
  br i1 %.not567176, label %.loopexit, label %.lr.ph.split.preheader

.lr.ph:                                           ; preds = %.loopexit68
  br i1 %.not, label %.lr.ph.split.us.preheader, label %.lr.ph.split.preheader

.lr.ph.split.preheader:                           ; preds = %.loopexit68.thread, %.lr.ph
  %.pr.ph = phi i8 [ %19, %.loopexit68.thread ], [ %17, %.lr.ph ]
  br label %.lr.ph.split

.lr.ph.split.us.preheader:                        ; preds = %.loopexit68.thread77, %.lr.ph
  %.ph = phi i8 [ %18, %.loopexit68.thread77 ], [ %17, %.lr.ph ]
  br label %.lr.ph.split.us

.lr.ph.split.us:                                  ; preds = %.lr.ph.split.us.preheader, %.thread66.us
  %20 = phi i8 [ %23, %.thread66.us ], [ %.ph, %.lr.ph.split.us.preheader ]
  %.072.us = phi ptr [ %22, %.thread66.us ], [ %0, %.lr.ph.split.us.preheader ]
  switch i8 %20, label %.thread66.us [
    i8 44, label %21
    i8 46, label %21
  ]

21:                                               ; preds = %.lr.ph.split.us, %.lr.ph.split.us
  store i8 32, ptr %.072.us, align 1
  br label %.thread66.us

.thread66.us:                                     ; preds = %21, %.lr.ph.split.us
  %22 = getelementptr inbounds i8, ptr %.072.us, i64 1
  %23 = load i8, ptr %22, align 1
  %.not56.us = icmp eq i8 %23, 0
  br i1 %.not56.us, label %.loopexit, label %.lr.ph.split.us, !llvm.loop !9

.lr.ph.split:                                     ; preds = %.lr.ph.split.preheader, %.thread66
  %.pr = phi i8 [ %27, %.thread66 ], [ %.pr.ph, %.lr.ph.split.preheader ]
  %.072 = phi ptr [ %26, %.thread66 ], [ %0, %.lr.ph.split.preheader ]
  switch i8 %.pr, label %.thread66 [
    i8 46, label %.thread66.sink.split
    i8 58, label %24
    i8 44, label %25
  ]

24:                                               ; preds = %.lr.ph.split
  br label %.thread66.sink.split

25:                                               ; preds = %.lr.ph.split
  br label %.thread66.sink.split

.thread66.sink.split:                             ; preds = %.lr.ph.split, %25, %24
  %.sink = phi i8 [ 32, %24 ], [ 32, %25 ], [ 47, %.lr.ph.split ]
  store i8 %.sink, ptr %.072, align 1
  br label %.thread66

.thread66:                                        ; preds = %.thread66.sink.split, %.lr.ph.split
  %26 = getelementptr inbounds i8, ptr %.072, i64 1
  %27 = load i8, ptr %26, align 1
  %.not56 = icmp eq i8 %27, 0
  br i1 %.not56, label %.loopexit, label %.lr.ph.split, !llvm.loop !9

.loopexit.sink.split:                             ; preds = %.preheader69, %.thread60, %14, %7
  %.str.7.sink = phi ptr [ @.str.4, %7 ], [ @.str.6, %14 ], [ @.str.7, %.thread60 ], [ @.str.5, %.preheader69 ]
  store ptr %.str.7.sink, ptr %1, align 8
  br label %.loopexit

.loopexit:                                        ; preds = %.thread66, %.thread66.us, %.loopexit.sink.split, %.loopexit68.thread77, %.loopexit68.thread, %.loopexit68
  %.039 = phi i1 [ true, %.loopexit68 ], [ true, %.loopexit68.thread ], [ true, %.loopexit68.thread77 ], [ false, %.loopexit.sink.split ], [ true, %.thread66.us ], [ true, %.thread66 ]
  ret i1 %.039
}